; Function Attrs: nounwind uwtable
define internal void @myopcb(i32 noundef %0, ptr noundef initializes((472, 476)) %1) #0 {
  %3 = getelementptr inbounds nuw i8, ptr %1, i64 472
  store i32 %0, ptr %3, align 8, !tbaa !161
  %4 = getelementptr inbounds nuw i8, ptr %1, i64 376
  %5 = tail call i32 @pthread_mutex_lock(ptr noundef nonnull %4) #18
  %6 = getelementptr inbounds nuw i8, ptr %1, i64 464
  store volatile i8 0, ptr %6, align 8, !tbaa !159
  fence release
  %7 = getelementptr inbounds nuw i8, ptr %1, i64 416
  %8 = tail call i32 @pthread_cond_broadcast(ptr noundef nonnull %7) #18
  %9 = tail call i32 @pthread_mutex_unlock(ptr noundef nonnull %4) #18
  ret void
}